BL51 BANKED LINKER/LOCATER V6.22.2.0                                                    10/19/2019  18:41:26  PAGE 1


BL51 BANKED LINKER/LOCATER V6.22.2.0, INVOKED BY:
C:\KEIL_V5\C51\BIN\BL51.EXE .\Objects\main.obj, .\Objects\oled.obj, .\Objects\ds18b20.obj, .\Objects\uart.obj TO .\Objec
>> ts\test PRINT (.\Listings\test.m51) RAMSIZE (256)


MEMORY MODEL: SMALL WITH FLOATING POINT ARITHMETIC


INPUT MODULES INCLUDED:
  .\Objects\main.obj (MAIN)
  .\Objects\oled.obj (OLED)
  .\Objects\ds18b20.obj (DS18B20)
  .\Objects\uart.obj (UART)
  C:\KEIL_V5\C51\LIB\C51FPS.LIB (?C?FPADD)
  C:\KEIL_V5\C51\LIB\C51FPS.LIB (?C?FPMUL)
  C:\KEIL_V5\C51\LIB\C51FPS.LIB (?C?FPDIV)
  C:\KEIL_V5\C51\LIB\C51FPS.LIB (?C?FPCMP)
  C:\KEIL_V5\C51\LIB\C51FPS.LIB (?C?FCAST)
  C:\KEIL_V5\C51\LIB\C51FPS.LIB (?C?CASTF)
  C:\KEIL_V5\C51\LIB\C51FPS.LIB (PRINTF)
  C:\KEIL_V5\C51\LIB\C51FPS.LIB (?C?FPGETOPN)
  C:\KEIL_V5\C51\LIB\C51FPS.LIB (?C?FPROUND)
  C:\KEIL_V5\C51\LIB\C51FPS.LIB (?C?FPCONVERT)
  C:\KEIL_V5\C51\LIB\C51FPS.LIB (?C?FTNPWR)
  C:\KEIL_V5\C51\LIB\C51S.LIB (?C_STARTUP)
  C:\KEIL_V5\C51\LIB\C51S.LIB (?C?CLDPTR)
  C:\KEIL_V5\C51\LIB\C51S.LIB (?C?CLDOPTR)
  C:\KEIL_V5\C51\LIB\C51S.LIB (?C?CSTPTR)
  C:\KEIL_V5\C51\LIB\C51S.LIB (?C?IMUL)
  C:\KEIL_V5\C51\LIB\C51S.LIB (?C?UIDIV)
  C:\KEIL_V5\C51\LIB\C51S.LIB (?C?LNEG)
  C:\KEIL_V5\C51\LIB\C51S.LIB (?C?PLDIIDATA)
  C:\KEIL_V5\C51\LIB\C51S.LIB (?C?CCASE)
  C:\KEIL_V5\C51\LIB\C51S.LIB (PUTCHAR)
  C:\KEIL_V5\C51\LIB\C51S.LIB (?C_INIT)


LINK MAP OF MODULE:  .\Objects\test (MAIN)


            TYPE    BASE      LENGTH    RELOCATION   SEGMENT NAME
            -----------------------------------------------------

            * * * * * * *   D A T A   M E M O R Y   * * * * * * *
            REG     0000H     0008H     ABSOLUTE     "REG BANK 0"
            DATA    0008H     000BH     UNIT         ?DT?_OLED_DRAWBMP?OLED
            DATA    0013H     0004H     UNIT         ?DT?DS18B20
            DATA    0017H     0002H     UNIT         ?DT?_FILL_PICTURE?OLED
            DATA    0019H     0002H     UNIT         ?DT?UART
            DATA    001BH     0001H     UNIT         ?DT?OLED_ON?OLED
                    001CH     0004H                  *** GAP ***
            BIT     0020H.0   0001H.1   UNIT         _BIT_GROUP_
            BIT     0021H.1   0000H.1   UNIT         ?BI?UART
                    0021H.2   0000H.6                *** GAP ***
            DATA    0022H     0029H     UNIT         _DATA_GROUP_
            DATA    004BH     0027H     UNIT         ?DT?MAIN
            IDATA   0072H     0001H     UNIT         ?STACK

BL51 BANKED LINKER/LOCATER V6.22.2.0                                                  10/19/2019  18:41:26  PAGE 2


            * * * * * * *  X D A T A   M E M O R Y  * * * * * * *
            XDATA   0000H     0014H     UNIT         ?XD?UART

            * * * * * * *   C O D E   M E M O R Y   * * * * * * *
            CODE    0000H     0003H     ABSOLUTE     
            CODE    0003H     0007H     UNIT         ?PR?IIC_STOP?OLED
                    000AH     0001H                  *** GAP ***
            CODE    000BH     0003H     ABSOLUTE     
            CODE    000EH     0011H     UNIT         ?PR?OLED_DISPLAY_OFF?OLED
                    001FH     0004H                  *** GAP ***
            CODE    0023H     0003H     ABSOLUTE     
            CODE    0026H     0B58H     UNIT         ?CO?OLED
            CODE    0B7EH     0804H     UNIT         ?CO?MAIN
            CODE    1382H     067BH     UNIT         ?C?LIB_CODE
            CODE    19FDH     046FH     UNIT         ?PR?PRINTF?PRINTF
            CODE    1E6CH     019CH     UNIT         ?PR?MAIN?MAIN
            CODE    2008H     00E0H     UNIT         ?PR?OLED_INIT?OLED
            CODE    20E8H     00DBH     UNIT         ?PR?_OLED_SHOWCHAR?OLED
            CODE    21C3H     00A9H     UNIT         ?PR?SHOWINIT?MAIN
            CODE    226CH     008CH     UNIT         ?C_C51STARTUP
            CODE    22F8H     0084H     UNIT         ?PR?_OLED_SHOWCHINESE?OLED
            CODE    237CH     007AH     UNIT         ?PR?_OLED_SHOWNUM?OLED
            CODE    23F6H     0070H     UNIT         ?PR?GET_TMP?DS18B20
            CODE    2466H     006AH     UNIT         ?PR?UARTINTERRUPT?UART
            CODE    24D0H     0069H     UNIT         ?PR?_OLED_DRAWBMP?OLED
            CODE    2539H     0044H     UNIT         ?PR?_OLED_SHOWSTRING?OLED
            CODE    257DH     003AH     UNIT         ?C_INITSEG
            CODE    25B7H     0036H     UNIT         ?PR?READ_ONE_BYTE?DS18B20
            CODE    25EDH     0035H     UNIT         ?PR?_FILL_PICTURE?OLED
            CODE    2622H     0033H     UNIT         ?PR?OLED_ON?OLED
            CODE    2655H     0032H     UNIT         ?PR?OLED_CLEAR?OLED
            CODE    2687H     0031H     UNIT         ?PR?_WRITE_IIC_BYTE?OLED
            CODE    26B8H     0031H     UNIT         ?PR?_WRITE_ONE_BYTE?DS18B20
            CODE    26E9H     002CH     UNIT         ?PR?_OLED_WR_BYTE?OLED
            CODE    2715H     002CH     UNIT         ?PR?_OLED_SET_POS?OLED
            CODE    2741H     0027H     UNIT         ?PR?PUTCHAR?PUTCHAR
            CODE    2768H     0023H     UNIT         ?PR?_SENDSTRING?UART
            CODE    278BH     0020H     UNIT         ?PR?INIT_DS18B20?DS18B20
            CODE    27ABH     001EH     UNIT         ?PR?_DELAY_50MS?OLED
            CODE    27C9H     001AH     UNIT         ?PR?_DELAY_MS?OLED
            CODE    27E3H     001AH     UNIT         ?PR?_DELAY_1MS?OLED
            CODE    27FDH     001AH     UNIT         ?CO?DS18B20
            CODE    2817H     0018H     UNIT         ?PR?_OLED_POW?OLED
            CODE    282FH     0017H     UNIT         ?PR?OLED_DISPLAY_ON?OLED
            CODE    2846H     0016H     UNIT         ?PR?INITUART?UART
            CODE    285CH     0011H     UNIT         ?PR?_TIME0START?DS18B20
            CODE    286DH     0010H     UNIT         ?PR?IIC_WAIT_ACK?OLED
            CODE    287DH     000FH     UNIT         ?PR?_MDELAY?MAIN
            CODE    288CH     000EH     UNIT         ?PR?_WRITE_IIC_COMMAND?OLED
            CODE    289AH     000EH     UNIT         ?PR?_WRITE_IIC_DATA?OLED
            CODE    28A8H     000CH     UNIT         ?PR?TIMER0INTERRUPT?DS18B20
            CODE    28B4H     000BH     UNIT         ?PR?_DELAY?DS18B20
            CODE    28BFH     000BH     UNIT         ?PR?_SENDONEBYTE?UART
            CODE    28CAH     0009H     UNIT         ?PR?IIC_START?OLED



BL51 BANKED LINKER/LOCATER V6.22.2.0                                                  10/19/2019  18:41:26  PAGE 3


OVERLAY MAP OF MODULE:   .\Objects\test (MAIN)


SEGMENT                                BIT_GROUP          DATA_GROUP 
  +--> CALLED SEGMENT               START    LENGTH     START    LENGTH
-----------------------------------------------------------------------
?C_C51STARTUP                       -----    -----      -----    -----
  +--> ?PR?MAIN?MAIN
  +--> ?C_INITSEG

?PR?MAIN?MAIN                       -----    -----      0022H    000DH
  +--> ?PR?INITUART?UART
  +--> ?PR?OLED_INIT?OLED
  +--> ?PR?OLED_CLEAR?OLED
  +--> ?PR?SHOWINIT?MAIN
  +--> ?PR?_MDELAY?MAIN
  +--> ?PR?GET_TMP?DS18B20
  +--> ?PR?_OLED_SHOWCHAR?OLED
  +--> ?PR?_SENDSTRING?UART
  +--> ?PR?_SENDONEBYTE?UART
  +--> ?CO?MAIN
  +--> ?PR?PRINTF?PRINTF
  +--> ?PR?_OLED_SHOWSTRING?OLED
  +--> ?PR?_OLED_SHOWNUM?OLED

?PR?OLED_INIT?OLED                  -----    -----      -----    -----
  +--> ?PR?_OLED_WR_BYTE?OLED

?PR?_OLED_WR_BYTE?OLED              -----    -----      -----    -----
  +--> ?PR?_WRITE_IIC_DATA?OLED
  +--> ?PR?_WRITE_IIC_COMMAND?OLED

?PR?_WRITE_IIC_DATA?OLED            -----    -----      -----    -----
  +--> ?PR?_WRITE_IIC_BYTE?OLED
  +--> ?PR?IIC_WAIT_ACK?OLED
  +--> ?PR?IIC_STOP?OLED

?PR?_WRITE_IIC_BYTE?OLED            -----    -----      -----    -----
  +--> ?PR?IIC_START?OLED

?PR?IIC_WAIT_ACK?OLED               -----    -----      -----    -----
  +--> ?PR?_WRITE_IIC_BYTE?OLED

?PR?_WRITE_IIC_COMMAND?OLED         -----    -----      -----    -----
  +--> ?PR?_WRITE_IIC_BYTE?OLED
  +--> ?PR?IIC_WAIT_ACK?OLED
  +--> ?PR?IIC_STOP?OLED

?PR?OLED_CLEAR?OLED                 -----    -----      002FH    0001H
  +--> ?PR?_OLED_WR_BYTE?OLED

?PR?SHOWINIT?MAIN                   -----    -----      002FH    0001H
  +--> ?PR?_OLED_SHOWCHINESE?OLED
  +--> ?PR?_OLED_SHOWCHAR?OLED

?PR?_OLED_SHOWCHINESE?OLED          -----    -----      0030H    0004H
  +--> ?PR?_OLED_SET_POS?OLED
BL51 BANKED LINKER/LOCATER V6.22.2.0                                                  10/19/2019  18:41:26  PAGE 4


  +--> ?CO?OLED
  +--> ?PR?_OLED_WR_BYTE?OLED

?PR?_OLED_SET_POS?OLED              -----    -----      -----    -----
  +--> ?PR?_OLED_WR_BYTE?OLED

?PR?_OLED_SHOWCHAR?OLED             -----    -----      0038H    0005H
  +--> ?PR?_OLED_SET_POS?OLED
  +--> ?CO?OLED
  +--> ?PR?_OLED_WR_BYTE?OLED

?PR?GET_TMP?DS18B20                 -----    -----      002FH    0004H
  +--> ?PR?INIT_DS18B20?DS18B20
  +--> ?PR?_WRITE_ONE_BYTE?DS18B20
  +--> ?PR?READ_ONE_BYTE?DS18B20

?PR?INIT_DS18B20?DS18B20            -----    -----      -----    -----
  +--> ?PR?_DELAY?DS18B20

?PR?_DELAY?DS18B20                  -----    -----      -----    -----
  +--> ?PR?_TIME0START?DS18B20

?PR?_WRITE_ONE_BYTE?DS18B20         -----    -----      -----    -----
  +--> ?PR?_DELAY?DS18B20

?PR?READ_ONE_BYTE?DS18B20           -----    -----      -----    -----
  +--> ?PR?_DELAY?DS18B20

?PR?_SENDSTRING?UART                -----    -----      002FH    0003H
  +--> ?PR?_SENDONEBYTE?UART

?PR?PRINTF?PRINTF                   0020H.0  0001H.1    002FH    001CH
  +--> ?PR?PUTCHAR?PUTCHAR

?PR?_OLED_SHOWSTRING?OLED           -----    -----      002FH    0007H
  +--> ?PR?_OLED_SHOWCHAR?OLED

?PR?_OLED_SHOWNUM?OLED              -----    -----      002FH    0009H
  +--> ?PR?_OLED_POW?OLED
  +--> ?PR?_OLED_SHOWCHAR?OLED

?PR?_OLED_POW?OLED                  -----    -----      0038H    0001H



SYMBOL TABLE OF MODULE:  .\Objects\test (MAIN)

  VALUE           TYPE          NAME
  ----------------------------------

  -------         MODULE        MAIN
  C:0000H         SYMBOL        _ICE_DUMMY_
  D:0093H         PUBLIC        P0M1
  D:0096H         PUBLIC        P2M0
  D:0080H         PUBLIC        P0
  D:0095H         PUBLIC        P2M1
  D:00A0H         PUBLIC        P2
BL51 BANKED LINKER/LOCATER V6.22.2.0                                                  10/19/2019  18:41:26  PAGE 5


  D:00B0H         PUBLIC        P3
  B:00A0H.1       PUBLIC        KEY_DWON
  C:0B82H         PUBLIC        BMP1
  C:0F82H         PUBLIC        BMP2
  B:00A0H.7       PUBLIC        huoyan
  B:0080H.2       PUBLIC        BEEP
  D:00D8H         PUBLIC        CCON
  C:1E6CH         PUBLIC        main
  B:0080H.3       PUBLIC        yanwu
  B:0080H.6       PUBLIC        LED
  C:21C3H         PUBLIC        showInit
  C:2881H         PUBLIC        _mDelay
  D:004DH         PUBLIC        alarmtex
  D:005CH         PUBLIC        phonenum
  B:00A0H.5       PUBLIC        KEY_UP
  D:0094H         PUBLIC        P0M0
  C:287DH         SYMBOL        L?0029
  -------         PROC          L?0028
  -------         ENDPROC       L?0028
  C:287DH         SYMBOL        L?0029
  -------         PROC          _MDELAY
  D:0006H         SYMBOL        i
  C:2881H         LINE#         12
  C:2881H         LINE#         13
  C:2881H         LINE#         14
  C:288BH         LINE#         15
  -------         ENDPROC       _MDELAY
  -------         PROC          SHOWINIT
  -------         DO            
  D:002FH         SYMBOL        offset_x
  -------         ENDDO         
  C:21C3H         LINE#         16
  C:21C3H         LINE#         17
  C:21C3H         LINE#         18
  C:21C6H         LINE#         19
  C:21C9H         LINE#         20
  C:21D0H         LINE#         21
  C:21DCH         LINE#         22
  C:21E8H         LINE#         23
  C:21F4H         LINE#         24
  C:2200H         LINE#         25
  C:220CH         LINE#         27
  C:2215H         LINE#         28
  C:221EH         LINE#         30
  C:2227H         LINE#         31
  C:2230H         LINE#         32
  C:223CH         LINE#         34
  C:2245H         LINE#         35
  C:224EH         LINE#         36
  C:225AH         LINE#         38
  C:2263H         LINE#         39
  -------         ENDPROC       SHOWINIT
  -------         PROC          MAIN
  -------         DO            
  D:0022H         SYMBOL        tempStr
  D:0027H         SYMBOL        temp
  D:004BH         SYMBOL        tempE
BL51 BANKED LINKER/LOCATER V6.22.2.0                                                  10/19/2019  18:41:26  PAGE 6


  D:002BH         SYMBOL        time
  D:002DH         SYMBOL        alarmFlag
  -------         ENDDO         
  C:1E6CH         LINE#         42
  C:1E6CH         LINE#         43
  C:1E6CH         LINE#         45
  C:1E75H         LINE#         47
  C:1E79H         LINE#         48
  C:1E7DH         LINE#         49
  C:1E80H         LINE#         50
  C:1E83H         LINE#         52
  C:1E86H         LINE#         53
  C:1E89H         LINE#         56
  C:1E8CH         LINE#         57
  C:1E8FH         LINE#         58
  C:1E92H         LINE#         59
  C:1E95H         LINE#         60
  C:1E98H         LINE#         61
  C:1E98H         LINE#         62
  C:1E98H         LINE#         66
  C:1EB5H         LINE#         67
  C:1EB8H         LINE#         68
  C:1EBBH         LINE#         69
  C:1ED0H         LINE#         70
  C:1ED2H         LINE#         71
  C:1ED4H         LINE#         72
  C:1EDAH         LINE#         73
  C:1EDAH         LINE#         74
  C:1EDDH         LINE#         75
  C:1EDDH         LINE#         76
  C:1EDFH         LINE#         77
  C:1EE1H         LINE#         78
  C:1EEDH         LINE#         79
  C:1EF3H         LINE#         80
  C:1EF5H         LINE#         81
  C:1EF5H         LINE#         82
  C:1F01H         LINE#         83
  C:1F01H         LINE#         84
  C:1F04H         LINE#         85
  C:1F04H         LINE#         86
  C:1F06H         LINE#         87
  C:1F08H         LINE#         88
  C:1F14H         LINE#         89
  C:1F1AH         LINE#         90
  C:1F1CH         LINE#         92
  C:1F1CH         LINE#         93
  C:1F28H         LINE#         94
  C:1F28H         LINE#         95
  C:1F43H         LINE#         96
  C:1F45H         LINE#         97
  C:1F47H         LINE#         98
  C:1F4CH         LINE#         99
  C:1F4CH         LINE#         101
  C:1F54H         LINE#         102
  C:1F54H         LINE#         103
  C:1F5CH         LINE#         104
  C:1F5CH         LINE#         105
BL51 BANKED LINKER/LOCATER V6.22.2.0                                                  10/19/2019  18:41:26  PAGE 7


  C:1F66H         LINE#         106
  C:1F6BH         LINE#         107
  C:1F6EH         LINE#         108
  C:1F79H         LINE#         109
  C:1F7EH         LINE#         110
  C:1F7EH         LINE#         111
  C:1F86H         LINE#         112
  C:1F8FH         LINE#         113
  C:1F8FH         LINE#         114
  C:1F8FH         LINE#         115
  C:1F91H         LINE#         116
  C:1F91H         LINE#         117
  C:1F96H         LINE#         118
  C:1F96H         LINE#         120
  C:1FB4H         LINE#         121
  C:1FB7H         LINE#         122
  C:1FC6H         LINE#         123
  C:1FD7H         LINE#         125
  C:1FDAH         LINE#         126
  C:1FDAH         LINE#         127
  C:1FDDH         LINE#         128
  C:1FE3H         LINE#         129
  C:1FEBH         LINE#         130
  C:1FEEH         LINE#         131
  C:1FF4H         LINE#         132
  C:1FF4H         LINE#         133
  C:1FF7H         LINE#         134
  C:1FFDH         LINE#         135
  C:2005H         LINE#         136
  C:2005H         LINE#         138
  -------         ENDPROC       MAIN
  -------         ENDMOD        MAIN

  -------         MODULE        OLED
  C:0000H         SYMBOL        _ICE_DUMMY_
  C:282FH         PUBLIC        OLED_Display_On
  D:0080H         PUBLIC        P0
  D:00A0H         PUBLIC        P2
  D:00B0H         PUBLIC        P3
  C:25EDH         PUBLIC        _fill_picture
  C:27ABH         PUBLIC        _Delay_50ms
  C:2008H         PUBLIC        OLED_Init
  C:289AH         PUBLIC        _Write_IIC_Data
  D:00D8H         PUBLIC        CCON
  C:2539H         PUBLIC        _OLED_ShowString
  C:2704H         PUBLIC        _OLED_WR_Byte
  C:20E8H         PUBLIC        _OLED_ShowChar
  C:0026H         PUBLIC        F6x8
  C:083EH         PUBLIC        Hzk
  B:0080H.0       PUBLIC        OLED_SDIN
  C:268EH         PUBLIC        _Write_IIC_Byte
  C:024EH         PUBLIC        F8X16
  C:2878H         PUBLIC        IIC_Wait_Ack
  C:2622H         PUBLIC        OLED_On
  C:28CAH         PUBLIC        IIC_Start
  C:2715H         PUBLIC        _OLED_Set_Pos
  C:22F8H         PUBLIC        _OLED_ShowCHinese
BL51 BANKED LINKER/LOCATER V6.22.2.0                                                  10/19/2019  18:41:26  PAGE 8


  C:27C9H         PUBLIC        _delay_ms
  C:237CH         PUBLIC        _OLED_ShowNum
  C:000EH         PUBLIC        OLED_Display_Off
  C:2817H         PUBLIC        _oled_pow
  C:0003H         PUBLIC        IIC_Stop
  C:27E3H         PUBLIC        _Delay_1ms
  C:288CH         PUBLIC        _Write_IIC_Command
  B:0080H.1       PUBLIC        OLED_SCL
  C:2655H         PUBLIC        OLED_Clear
  C:24D0H         PUBLIC        _OLED_DrawBMP
  -------         PROC          _DELAY_MS
  D:0006H         SYMBOL        ms
  -------         DO            
  D:0004H         SYMBOL        a
  -------         ENDDO         
  C:27C9H         LINE#         44
  C:27C9H         LINE#         45
  C:27C9H         LINE#         47
  C:27CDH         LINE#         48
  C:27CDH         LINE#         49
  C:27D1H         LINE#         50
  C:27DBH         LINE#         51
  C:27E0H         LINE#         52
  C:27E2H         LINE#         54
  -------         ENDPROC       _DELAY_MS
  -------         PROC          IIC_START
  C:28CAH         LINE#         58
  C:28CAH         LINE#         59
  C:28CAH         LINE#         61
  C:28CCH         LINE#         62
  C:28CEH         LINE#         63
  C:28D0H         LINE#         64
  C:28D2H         LINE#         65
  -------         ENDPROC       IIC_START
  -------         PROC          IIC_STOP
  C:0003H         LINE#         70
  C:0003H         LINE#         71
  C:0003H         LINE#         72
  C:0005H         LINE#         74
  C:0007H         LINE#         75
  C:0009H         LINE#         77
  -------         ENDPROC       IIC_STOP
  -------         PROC          L?0113
  -------         ENDPROC       L?0113
  -------         PROC          IIC_WAIT_ACK
  C:2878H         LINE#         79
  C:2878H         LINE#         80
  C:2878H         LINE#         98
  C:287AH         LINE#         99
  C:287CH         LINE#         100
  -------         ENDPROC       IIC_WAIT_ACK
  -------         PROC          L?0114
  -------         ENDPROC       L?0114
  -------         PROC          _WRITE_IIC_BYTE
  D:0007H         SYMBOL        IIC_Byte
  -------         DO            
  D:0006H         SYMBOL        i
BL51 BANKED LINKER/LOCATER V6.22.2.0                                                  10/19/2019  18:41:26  PAGE 9


  D:0005H         SYMBOL        m
  D:0007H         SYMBOL        da
  -------         ENDDO         
  C:268EH         LINE#         105
  C:268EH         LINE#         106
  C:268EH         LINE#         109
  C:268EH         LINE#         110
  C:2690H         LINE#         111
  C:269CH         LINE#         112
  C:269CH         LINE#         113
  C:269EH         LINE#         115
  C:26A1H         LINE#         116
  C:26A6H         LINE#         117
  C:26AAH         LINE#         118
  C:26ACH         LINE#         119
  C:26B0H         LINE#         120
  C:26B2H         LINE#         121
  C:26B4H         LINE#         122
  C:26B7H         LINE#         125
  -------         ENDPROC       _WRITE_IIC_BYTE
  -------         PROC          _WRITE_IIC_COMMAND
  D:0004H         SYMBOL        IIC_Command
  C:288CH         LINE#         129
  C:288CH         LINE#         130
  C:288CH         LINE#         131
  C:288CH         LINE#         132
  C:288FH         LINE#         133
  C:2892H         LINE#         134
  C:2894H         LINE#         135
  C:2894H         LINE#         136
  C:2894H         LINE#         137
  C:2897H         LINE#         138
  -------         ENDPROC       _WRITE_IIC_COMMAND
  -------         PROC          _WRITE_IIC_DATA
  D:0004H         SYMBOL        IIC_Data
  C:289AH         LINE#         143
  C:289AH         LINE#         144
  C:289AH         LINE#         145
  C:289AH         LINE#         146
  C:289DH         LINE#         147
  C:28A0H         LINE#         148
  C:28A2H         LINE#         149
  C:28A2H         LINE#         150
  C:28A2H         LINE#         151
  C:28A5H         LINE#         152
  -------         ENDPROC       _WRITE_IIC_DATA
  C:26E9H         SYMBOL        L?0109
  C:26F3H         SYMBOL        L?0110
  C:26FAH         SYMBOL        L?0111
  C:2700H         SYMBOL        L?0112
  -------         PROC          L?0108
  -------         ENDPROC       L?0108
  C:26E9H         SYMBOL        L?0109
  C:26F3H         SYMBOL        L?0110
  C:26FAH         SYMBOL        L?0111
  C:2700H         SYMBOL        L?0112
  -------         PROC          _OLED_WR_BYTE
BL51 BANKED LINKER/LOCATER V6.22.2.0                                                  10/19/2019  18:41:26  PAGE 10


  D:0002H         SYMBOL        dat
  D:0004H         SYMBOL        cmd
  C:2704H         LINE#         154
  C:2708H         LINE#         155
  C:2708H         LINE#         156
  C:270CH         LINE#         157
  C:270CH         LINE#         159
  C:270FH         LINE#         161
  C:270FH         LINE#         162
  C:270FH         LINE#         163
  C:2714H         LINE#         165
  C:2714H         LINE#         168
  -------         ENDPROC       _OLED_WR_BYTE
  -------         PROC          _FILL_PICTURE
  D:0017H         SYMBOL        fill_Data
  -------         DO            
  D:0001H         SYMBOL        m
  D:0018H         SYMBOL        n
  -------         ENDDO         
  C:25EDH         LINE#         173
  C:25EFH         LINE#         174
  C:25EFH         LINE#         176
  C:25FEH         LINE#         177
  C:25FEH         LINE#         178
  C:25FEH         LINE#         179
  C:25FEH         LINE#         180
  C:2601H         LINE#         181
  C:260FH         LINE#         182
  C:260FH         LINE#         183
  C:261AH         LINE#         184
  C:261EH         LINE#         185
  C:2621H         LINE#         186
  -------         ENDPROC       _FILL_PICTURE
  -------         PROC          _DELAY_50MS
  D:0006H         SYMBOL        Del_50ms
  -------         DO            
  D:0004H         SYMBOL        m
  -------         ENDDO         
  C:27ABH         LINE#         190
  C:27ABH         LINE#         191
  C:27ABH         LINE#         193
  C:27B4H         LINE#         194
  C:27C8H         LINE#         195
  -------         ENDPROC       _DELAY_50MS
  -------         PROC          _DELAY_1MS
  D:0006H         SYMBOL        Del_1ms
  -------         DO            
  D:0005H         SYMBOL        j
  -------         ENDDO         
  C:27E3H         LINE#         197
  C:27E3H         LINE#         198
  C:27E3H         LINE#         200
  C:27EDH         LINE#         201
  C:27EDH         LINE#         202
  C:27FCH         LINE#         203
  C:27FCH         LINE#         204
  -------         ENDPROC       _DELAY_1MS
BL51 BANKED LINKER/LOCATER V6.22.2.0                                                  10/19/2019  18:41:26  PAGE 11


  -------         PROC          _OLED_SET_POS
  D:0001H         SYMBOL        x
  D:0005H         SYMBOL        y
  C:2715H         LINE#         208
  C:2717H         LINE#         209
  C:2724H         LINE#         210
  C:2735H         LINE#         211
  -------         ENDPROC       _OLED_SET_POS
  -------         PROC          OLED_DISPLAY_ON
  C:282FH         LINE#         214
  C:282FH         LINE#         215
  C:282FH         LINE#         216
  C:2834H         LINE#         217
  C:283DH         LINE#         218
  -------         ENDPROC       OLED_DISPLAY_ON
  -------         PROC          OLED_DISPLAY_OFF
  C:000EH         LINE#         221
  C:000EH         LINE#         222
  C:000EH         LINE#         223
  C:0013H         LINE#         224
  C:0016H         LINE#         225
  -------         ENDPROC       OLED_DISPLAY_OFF
  -------         PROC          OLED_CLEAR
  -------         DO            
  D:0001H         SYMBOL        i
  D:002FH         SYMBOL        n
  -------         ENDDO         
  C:2655H         LINE#         228
  C:2655H         LINE#         229
  C:2655H         LINE#         231
  C:2664H         LINE#         232
  C:2664H         LINE#         233
  C:2664H         LINE#         234
  C:2664H         LINE#         235
  C:2667H         LINE#         236
  C:2683H         LINE#         237
  C:2686H         LINE#         238
  -------         ENDPROC       OLED_CLEAR
  -------         PROC          OLED_ON
  -------         DO            
  D:0001H         SYMBOL        i
  D:001BH         SYMBOL        n
  -------         ENDDO         
  C:2622H         LINE#         239
  C:2622H         LINE#         240
  C:2622H         LINE#         242
  C:2631H         LINE#         243
  C:2631H         LINE#         244
  C:2631H         LINE#         245
  C:2631H         LINE#         246
  C:2634H         LINE#         247
  C:2651H         LINE#         248
  C:2654H         LINE#         249
  -------         ENDPROC       OLED_ON
  -------         PROC          _OLED_SHOWCHAR
  D:0038H         SYMBOL        x
  D:0039H         SYMBOL        y
BL51 BANKED LINKER/LOCATER V6.22.2.0                                                  10/19/2019  18:41:26  PAGE 12


  D:0003H         SYMBOL        chr
  D:003BH         SYMBOL        Char_Size
  -------         DO            
  D:003CH         SYMBOL        c
  D:0001H         SYMBOL        i
  -------         ENDDO         
  C:20E8H         LINE#         255
  C:20ECH         LINE#         256
  C:20ECH         LINE#         257
  C:20F0H         LINE#         258
  C:20F5H         LINE#         259
  C:2106H         LINE#         260
  C:210CH         LINE#         261
  C:210CH         LINE#         262
  C:2113H         LINE#         263
  C:211FH         LINE#         264
  C:2148H         LINE#         265
  C:2151H         LINE#         266
  C:215DH         LINE#         267
  C:2186H         LINE#         268
  C:2186H         LINE#         269
  C:2186H         LINE#         270
  C:218DH         LINE#         271
  C:2199H         LINE#         272
  C:21C2H         LINE#         274
  C:21C2H         LINE#         275
  -------         ENDPROC       _OLED_SHOWCHAR
  -------         PROC          _OLED_POW
  D:0038H         SYMBOL        m
  D:0001H         SYMBOL        n
  -------         DO            
  D:0006H         SYMBOL        result
  -------         ENDDO         
  C:2817H         LINE#         277
  C:281BH         LINE#         278
  C:281BH         LINE#         279
  C:281FH         LINE#         280
  C:282EH         LINE#         281
  C:282EH         LINE#         282
  -------         ENDPROC       _OLED_POW
  -------         PROC          _OLED_SHOWNUM
  D:002FH         SYMBOL        x
  D:0030H         SYMBOL        y
  D:0031H         SYMBOL        num
  D:0033H         SYMBOL        len
  D:0034H         SYMBOL        size2
  -------         DO            
  D:0035H         SYMBOL        t
  D:0036H         SYMBOL        temp
  D:0037H         SYMBOL        enshow
  -------         ENDDO         
  C:237CH         LINE#         289
  C:2384H         LINE#         290
  C:2384H         LINE#         292
  C:2387H         LINE#         293
  C:2390H         LINE#         294
  C:2390H         LINE#         295
BL51 BANKED LINKER/LOCATER V6.22.2.0                                                  10/19/2019  18:41:26  PAGE 13


  C:23B2H         LINE#         296
  C:23C0H         LINE#         297
  C:23C0H         LINE#         298
  C:23C4H         LINE#         299
  C:23C4H         LINE#         300
  C:23D4H         LINE#         301
  C:23D6H         LINE#         302
  C:23D9H         LINE#         304
  C:23D9H         LINE#         305
  C:23F1H         LINE#         306
  C:23F5H         LINE#         307
  -------         ENDPROC       _OLED_SHOWNUM
  -------         PROC          _OLED_SHOWSTRING
  D:002FH         SYMBOL        x
  D:0030H         SYMBOL        y
  D:0031H         SYMBOL        chr
  D:0034H         SYMBOL        Char_Size
  -------         DO            
  D:0035H         SYMBOL        j
  -------         ENDDO         
  C:2539H         LINE#         309
  C:2543H         LINE#         310
  C:2543H         LINE#         311
  C:2546H         LINE#         312
  C:2558H         LINE#         313
  C:2562H         LINE#         314
  C:2568H         LINE#         315
  C:2578H         LINE#         316
  C:257AH         LINE#         317
  C:257CH         LINE#         318
  -------         ENDPROC       _OLED_SHOWSTRING
  -------         PROC          _OLED_SHOWCHINESE
  D:0030H         SYMBOL        x
  D:0031H         SYMBOL        y
  D:0032H         SYMBOL        no
  -------         DO            
  D:0001H         SYMBOL        t
  D:0033H         SYMBOL        adder
  -------         ENDDO         
  C:22F8H         LINE#         320
  C:22FEH         LINE#         321
  C:22FEH         LINE#         322
  C:2301H         LINE#         323
  C:2304H         LINE#         324
  C:2310H         LINE#         325
  C:2310H         LINE#         326
  C:2336H         LINE#         327
  C:2338H         LINE#         328
  C:233BH         LINE#         329
  C:2344H         LINE#         330
  C:2350H         LINE#         331
  C:2350H         LINE#         332
  C:2376H         LINE#         333
  C:2378H         LINE#         334
  C:237BH         LINE#         335
  -------         ENDPROC       _OLED_SHOWCHINESE
  -------         PROC          _OLED_DRAWBMP
BL51 BANKED LINKER/LOCATER V6.22.2.0                                                  10/19/2019  18:41:26  PAGE 14


  D:0008H         SYMBOL        x0
  D:0005H         SYMBOL        y0
  D:000AH         SYMBOL        x1
  D:000BH         SYMBOL        y1
  D:000CH         SYMBOL        BMP
  -------         DO            
  D:000FH         SYMBOL        j
  D:0011H         SYMBOL        x
  D:0012H         SYMBOL        y
  -------         ENDDO         
  C:24D0H         LINE#         337
  C:24D4H         LINE#         338
  C:24D4H         LINE#         339
  C:24D9H         LINE#         342
  C:24EAH         LINE#         343
  C:24F4H         LINE#         344
  C:24FDH         LINE#         345
  C:24FDH         LINE#         346
  C:2504H         LINE#         347
  C:250EH         LINE#         348
  C:250EH         LINE#         349
  C:2530H         LINE#         350
  C:2534H         LINE#         351
  C:2538H         LINE#         352
  -------         ENDPROC       _OLED_DRAWBMP
  -------         PROC          OLED_INIT
  C:2008H         LINE#         355
  C:2008H         LINE#         356
  C:2008H         LINE#         358
  C:200EH         LINE#         359
  C:200EH         LINE#         360
  C:2011H         LINE#         361
  C:201AH         LINE#         362
  C:2023H         LINE#         363
  C:202CH         LINE#         364
  C:2035H         LINE#         365
  C:203EH         LINE#         366
  C:2047H         LINE#         367
  C:2050H         LINE#         368
  C:2059H         LINE#         369
  C:2062H         LINE#         370
  C:206BH         LINE#         371
  C:2073H         LINE#         373
  C:207CH         LINE#         374
  C:2085H         LINE#         376
  C:208EH         LINE#         377
  C:2097H         LINE#         379
  C:20A0H         LINE#         380
  C:20A9H         LINE#         382
  C:20B2H         LINE#         383
  C:20BBH         LINE#         385
  C:20C4H         LINE#         386
  C:20CDH         LINE#         388
  C:20D6H         LINE#         389
  C:20DFH         LINE#         391
  -------         ENDPROC       OLED_INIT
  -------         ENDMOD        OLED
BL51 BANKED LINKER/LOCATER V6.22.2.0                                                  10/19/2019  18:41:26  PAGE 15



  -------         MODULE        DS18B20
  C:0000H         SYMBOL        _ICE_DUMMY_
  D:0080H         PUBLIC        P0
  D:00A0H         PUBLIC        P2
  D:00B0H         PUBLIC        P3
  B:00A8H.7       PUBLIC        EA
  C:26B8H         PUBLIC        _Write_One_Byte
  C:28A8H         PUBLIC        Timer0Interrupt
  C:27FDH         PUBLIC        table
  D:0013H         PUBLIC        delayFlag
  B:00A0H.0       PUBLIC        DQ
  D:00D8H         PUBLIC        CCON
  D:0014H         PUBLIC        wendu
  C:23F6H         PUBLIC        Get_Tmp
  D:0089H         PUBLIC        TMOD
  C:280DH         PUBLIC        table1
  B:00A8H.1       PUBLIC        ET0
  D:008CH         PUBLIC        TH0
  D:008AH         PUBLIC        TL0
  B:0088H.4       PUBLIC        TR0
  C:278BH         PUBLIC        Init_Ds18b20
  D:0016H         PUBLIC        i
  C:28B7H         PUBLIC        _Delay
  C:285CH         PUBLIC        _time0Start
  C:25B7H         PUBLIC        Read_One_Byte
  -------         PROC          _TIME0START
  D:0007H         SYMBOL        th0
  D:0005H         SYMBOL        tl0
  C:285CH         LINE#         58
  C:285CH         LINE#         59
  C:285CH         LINE#         60
  C:285FH         LINE#         61
  C:2861H         LINE#         62
  C:2863H         LINE#         63
  C:2865H         LINE#         64
  C:2867H         LINE#         65
  C:2869H         LINE#         66
  C:286CH         LINE#         67
  -------         ENDPROC       _TIME0START
  -------         PROC          TIMER0INTERRUPT
  C:28A8H         LINE#         68
  C:28A8H         LINE#         70
  C:28ABH         LINE#         71
  C:28AEH         LINE#         72
  C:28B1H         LINE#         73
  C:28B3H         LINE#         75
  -------         ENDPROC       TIMER0INTERRUPT
  -------         PROC          L?0017
  -------         ENDPROC       L?0017
  -------         PROC          _DELAY
  D:0007H         SYMBOL        th0
  D:0005H         SYMBOL        tl0
  C:28B7H         LINE#         76
  C:28B7H         LINE#         77
  C:28B7H         LINE#         78
  C:28BAH         LINE#         79
BL51 BANKED LINKER/LOCATER V6.22.2.0                                                  10/19/2019  18:41:26  PAGE 16


  C:28BEH         LINE#         80
  -------         ENDPROC       _DELAY
  -------         PROC          INIT_DS18B20
  C:278BH         LINE#         83
  C:278BH         LINE#         84
  C:278BH         LINE#         85
  C:278DH         LINE#         86
  C:2795H         LINE#         87
  C:2797H         LINE#         88
  C:279FH         LINE#         90
  C:27A1H         LINE#         91
  -------         ENDPROC       INIT_DS18B20
  -------         PROC          READ_ONE_BYTE
  -------         DO            
  D:0006H         SYMBOL        i
  D:0004H         SYMBOL        dat
  -------         ENDDO         
  C:25B7H         LINE#         94
  C:25B7H         LINE#         96
  C:25B7H         LINE#         97
  C:25B8H         LINE#         98
  C:25B9H         LINE#         99
  C:25C5H         LINE#         100
  C:25C5H         LINE#         101
  C:25C7H         LINE#         103
  C:25C8H         LINE#         104
  C:25CBH         LINE#         105
  C:25CDH         LINE#         106
  C:25D7H         LINE#         107
  C:25DAH         LINE#         108
  C:25DAH         LINE#         109
  C:25DDH         LINE#         110
  C:25DDH         LINE#         111
  C:25E7H         LINE#         112
  C:25EAH         LINE#         113
  C:25ECH         LINE#         114
  -------         ENDPROC       READ_ONE_BYTE
  -------         PROC          _WRITE_ONE_BYTE
  D:0006H         SYMBOL        dat
  -------         DO            
  D:0003H         SYMBOL        i
  -------         ENDDO         
  C:26B8H         LINE#         116
  C:26BAH         LINE#         117
  C:26BAH         LINE#         118
  C:26BAH         LINE#         119
  C:26C6H         LINE#         120
  C:26C6H         LINE#         121
  C:26C8H         LINE#         122
  C:26C9H         LINE#         123
  C:26CDH         LINE#         126
  C:26D7H         LINE#         128
  C:26D9H         LINE#         129
  C:26DDH         LINE#         130
  C:26E5H         LINE#         131
  C:26E8H         LINE#         132
  -------         ENDPROC       _WRITE_ONE_BYTE
BL51 BANKED LINKER/LOCATER V6.22.2.0                                                  10/19/2019  18:41:26  PAGE 17


  -------         PROC          GET_TMP
  -------         DO            
  D:002FH         SYMBOL        tt
  D:0003H         SYMBOL        a
  D:0007H         SYMBOL        b
  -------         ENDDO         
  C:23F6H         LINE#         135
  C:23F6H         LINE#         136
  C:23F6H         LINE#         139
  C:23F9H         LINE#         140
  C:23FEH         LINE#         141
  C:2403H         LINE#         142
  C:2406H         LINE#         143
  C:240BH         LINE#         144
  C:2410H         LINE#         145
  C:2415H         LINE#         146
  C:2418H         LINE#         147
  C:241DH         LINE#         148
  C:2424H         LINE#         149
  C:242AH         LINE#         150
  C:2443H         LINE#         153
  C:2465H         LINE#         156
  C:2465H         LINE#         157
  -------         ENDPROC       GET_TMP
  -------         ENDMOD        DS18B20

  -------         MODULE        UART
  C:0000H         SYMBOL        _ICE_DUMMY_
  B:00A8H.7       PUBLIC        EA
  C:2768H         PUBLIC        _SendString
  C:2466H         PUBLIC        UARTInterrupt
  B:00A8H.4       PUBLIC        ES
  B:0098H.0       PUBLIC        RI
  B:0098H.1       PUBLIC        TI
  D:0099H         PUBLIC        SBUF
  D:0087H         PUBLIC        PCON
  D:0098H         PUBLIC        SCON
  D:0089H         PUBLIC        TMOD
  C:28BFH         PUBLIC        _SendOneByte
  D:008DH         PUBLIC        TH1
  D:008BH         PUBLIC        TL1
  C:2846H         PUBLIC        InitUART
  B:0088H.6       PUBLIC        TR1
  X:0000H         PUBLIC        USART_RX_BUF
  D:0019H         PUBLIC        USART_RX_STA
  B:0021H.1       PUBLIC        E_uart_send
  -------         PROC          INITUART
  C:2846H         LINE#         12
  C:2846H         LINE#         13
  C:2846H         LINE#         14
  C:2849H         LINE#         15
  C:284CH         LINE#         16
  C:284FH         LINE#         17
  C:2852H         LINE#         18
  C:2855H         LINE#         19
  C:2857H         LINE#         20
  C:2859H         LINE#         21
BL51 BANKED LINKER/LOCATER V6.22.2.0                                                  10/19/2019  18:41:26  PAGE 18


  C:285BH         LINE#         22
  -------         ENDPROC       INITUART
  -------         PROC          _SENDONEBYTE
  D:0007H         SYMBOL        c
  C:28BFH         LINE#         23
  C:28BFH         LINE#         24
  C:28BFH         LINE#         25
  C:28C2H         LINE#         26
  C:28C4H         LINE#         27
  C:28C7H         LINE#         28
  C:28C9H         LINE#         29
  C:28C9H         LINE#         31
  -------         ENDPROC       _SENDONEBYTE
  -------         PROC          _SENDSTRING
  D:002FH         SYMBOL        p
  D:0005H         SYMBOL        len
  -------         DO            
  D:0006H         SYMBOL        t
  -------         ENDDO         
  C:2768H         LINE#         32
  C:276EH         LINE#         33
  C:276EH         LINE#         35
  C:2775H         LINE#         36
  C:2775H         LINE#         37
  C:2787H         LINE#         38
  C:278AH         LINE#         39
  -------         ENDPROC       _SENDSTRING
  -------         PROC          UARTINTERRUPT
  -------         DO            
  D:0007H         SYMBOL        Res
  -------         ENDDO         
  C:2466H         LINE#         40
  C:2475H         LINE#         43
  C:2478H         LINE#         44
  C:2478H         LINE#         45
  C:247AH         LINE#         46
  C:247CH         LINE#         47
  C:2481H         LINE#         48
  C:2481H         LINE#         49
  C:2484H         LINE#         50
  C:2484H         LINE#         51
  C:248BH         LINE#         52
  C:248BH         LINE#         53
  C:248EH         LINE#         61
  C:248EH         LINE#         62
  C:2490H         LINE#         64
  C:2490H         LINE#         65
  C:2495H         LINE#         66
  C:249AH         LINE#         68
  C:249AH         LINE#         69
  C:24ACH         LINE#         70
  C:24B4H         LINE#         71
  C:24BDH         LINE#         72
  C:24C3H         LINE#         73
  C:24C3H         LINE#         74
  C:24C3H         LINE#         75
  C:24C3H         LINE#         77
BL51 BANKED LINKER/LOCATER V6.22.2.0                                                  10/19/2019  18:41:26  PAGE 19


  C:24C3H         LINE#         79
  -------         ENDPROC       UARTINTERRUPT
  -------         ENDMOD        UART

  -------         MODULE        ?C?FPADD
  C:1389H         PUBLIC        ?C?FPADD
  C:1385H         PUBLIC        ?C?FPSUB
  -------         ENDMOD        ?C?FPADD

  -------         MODULE        ?C?FPMUL
  C:147AH         PUBLIC        ?C?FPMUL
  -------         ENDMOD        ?C?FPMUL

  -------         MODULE        ?C?FPDIV
  C:1583H         PUBLIC        ?C?FPDIV
  -------         ENDMOD        ?C?FPDIV

  -------         MODULE        ?C?FPCMP
  C:1622H         PUBLIC        ?C?FPCMP
  C:1620H         PUBLIC        ?C?FPCMP3
  -------         ENDMOD        ?C?FPCMP

  -------         MODULE        ?C?FCAST
  C:16A3H         PUBLIC        ?C?FCASTC
  C:169EH         PUBLIC        ?C?FCASTI
  C:1699H         PUBLIC        ?C?FCASTL
  -------         ENDMOD        ?C?FCAST

  -------         MODULE        ?C?CASTF
  C:16D7H         PUBLIC        ?C?CASTF
  -------         ENDMOD        ?C?CASTF

  -------         MODULE        PRINTF
  D:002FH         PUBLIC        ?_PRINTF?BYTE
  D:002FH         PUBLIC        ?_SPRINTF?BYTE
  C:1A5FH         PUBLIC        _PRINTF
  C:1A59H         PUBLIC        _SPRINTF
  -------         ENDMOD        PRINTF

  -------         MODULE        ?C?FPROUND
  C:1758H         PUBLIC        ?C?FPROUND
  -------         ENDMOD        ?C?FPROUND

  -------         MODULE        ?C?FPCONVERT
  C:1787H         PUBLIC        ?C?FPCONVERT
  -------         ENDMOD        ?C?FPCONVERT

  -------         MODULE        ?C?FTNPWR
  C:18BAH         PUBLIC        ?C?FTNPWR
  -------         ENDMOD        ?C?FTNPWR

  -------         MODULE        ?C?CLDPTR
  C:18FAH         PUBLIC        ?C?CLDPTR
  -------         ENDMOD        ?C?CLDPTR

  -------         MODULE        ?C?CLDOPTR
  C:1913H         PUBLIC        ?C?CLDOPTR
BL51 BANKED LINKER/LOCATER V6.22.2.0                                                  10/19/2019  18:41:26  PAGE 20


  -------         ENDMOD        ?C?CLDOPTR

  -------         MODULE        ?C?CSTPTR
  C:1940H         PUBLIC        ?C?CSTPTR
  -------         ENDMOD        ?C?CSTPTR

  -------         MODULE        ?C?IMUL
  C:1952H         PUBLIC        ?C?IMUL
  -------         ENDMOD        ?C?IMUL

  -------         MODULE        ?C?UIDIV
  C:1964H         PUBLIC        ?C?UIDIV
  -------         ENDMOD        ?C?UIDIV

  -------         MODULE        ?C?LNEG
  C:19B9H         PUBLIC        ?C?LNEG
  -------         ENDMOD        ?C?LNEG

  -------         MODULE        ?C?PLDIIDATA
  C:19C7H         PUBLIC        ?C?PLDIIDATA
  -------         ENDMOD        ?C?PLDIIDATA

  -------         MODULE        ?C?CCASE
  C:19D7H         PUBLIC        ?C?CCASE
  -------         ENDMOD        ?C?CCASE

  -------         MODULE        PUTCHAR
  C:2741H         PUBLIC        _PUTCHAR
  -------         ENDMOD        PUTCHAR

*** WARNING L16: UNCALLED SEGMENT, IGNORED FOR OVERLAY PROCESS
    SEGMENT: ?PR?_DELAY_MS?OLED

*** WARNING L16: UNCALLED SEGMENT, IGNORED FOR OVERLAY PROCESS
    SEGMENT: ?PR?_FILL_PICTURE?OLED

*** WARNING L16: UNCALLED SEGMENT, IGNORED FOR OVERLAY PROCESS
    SEGMENT: ?PR?_DELAY_50MS?OLED

*** WARNING L16: UNCALLED SEGMENT, IGNORED FOR OVERLAY PROCESS
    SEGMENT: ?PR?_DELAY_1MS?OLED

*** WARNING L16: UNCALLED SEGMENT, IGNORED FOR OVERLAY PROCESS
    SEGMENT: ?PR?OLED_DISPLAY_ON?OLED

*** WARNING L16: UNCALLED SEGMENT, IGNORED FOR OVERLAY PROCESS
    SEGMENT: ?PR?OLED_DISPLAY_OFF?OLED

*** WARNING L16: UNCALLED SEGMENT, IGNORED FOR OVERLAY PROCESS
    SEGMENT: ?PR?OLED_ON?OLED

*** WARNING L16: UNCALLED SEGMENT, IGNORED FOR OVERLAY PROCESS
    SEGMENT: ?PR?_OLED_DRAWBMP?OLED

*** WARNING L16: UNCALLED SEGMENT, IGNORED FOR OVERLAY PROCESS
    SEGMENT: ?CO?DS18B20

BL51 BANKED LINKER/LOCATER V6.22.2.0                                                  10/19/2019  18:41:26  PAGE 21


Program Size: data=110.2 xdata=20 code=10446
LINK/LOCATE RUN COMPLETE.  9 WARNING(S),  0 ERROR(S)
